target datalayout = "e-m:e-p270:32:32-p271:32:32-p272:64:64-i64:64-i128:128-f80:128-n8:16:32:64-S128"
target triple = "x86_64-pc-linux-gnu"

%struct.ScratchBuf = type { [65536 x i8], i32 }

@scratch_buffer = dso_local global %struct.ScratchBuf zeroinitializer, align 4
@.str.3 = private unnamed_addr constant [3 x i8] c"%f\00", align 1

; Function Attrs: nounwind uwtable
define dso_local void @scratch_buffer_append_double(double noundef %0) #0 {
  %2 = alloca double, align 8
  store double %0, ptr %2, align 8
  %3 = load double, ptr %2, align 8
  call void (ptr, ...) @scratch_buffer_printf(ptr noundef @.str.3, double noundef %3)
  br label %4

4:                                                ; preds = %24, %1
  %5 = load i32, ptr getelementptr inbounds (%struct.ScratchBuf, ptr @scratch_buffer, i32 0, i32 1), align 4
  %6 = icmp ugt i32 %5, 0
  br i1 %6, label %7, label %27

7:                                                ; preds = %4
  %8 = load i32, ptr getelementptr inbounds (%struct.ScratchBuf, ptr @scratch_buffer, i32 0, i32 1), align 4
  %9 = sub i32 %8, 1
  %10 = zext i32 %9 to i64
  %11 = getelementptr inbounds [65536 x i8], ptr @scratch_buffer, i64 0, i64 %10
  %12 = load i8, ptr %11, align 1
  %13 = sext i8 %12 to i32
  %14 = icmp ne i32 %13, 48
  br i1 %14, label %15, label %24

15:                                               ; preds = %7
  %16 = load i32, ptr getelementptr inbounds (%struct.ScratchBuf, ptr @scratch_buffer, i32 0, i32 1), align 4
  %17 = sub i32 %16, 1
  %18 = zext i32 %17 to i64
  %19 = getelementptr inbounds [65536 x i8], ptr @scratch_buffer, i64 0, i64 %18
  %20 = load i8, ptr %19, align 1
  %21 = sext i8 %20 to i32
  %22 = icmp ne i32 %21, 46
  br i1 %22, label %23, label %24

23:                                               ; preds = %15
  br label %27

24:                                               ; preds = %15, %7
  %25 = load i32, ptr getelementptr inbounds (%struct.ScratchBuf, ptr @scratch_buffer, i32 0, i32 1), align 4
  %26 = add i32 %25, -1
  store i32 %26, ptr getelementptr inbounds (%struct.ScratchBuf, ptr @scratch_buffer, i32 0, i32 1), align 4
  br label %4, !llvm.loop !23

27:                                               ; preds = %23, %4
  ret void
}