; Function Attrs: nounwind uwtable
define dso_local void @scratch_buffer_append_double(double noundef %0) local_unnamed_addr #7 {
  tail call void (ptr, ...) @scratch_buffer_printf(ptr noundef nonnull @.str.3, double noundef %0)
  %.pr = load i32, ptr getelementptr inbounds (%struct.ScratchBuf, ptr @scratch_buffer, i64 0, i32 1), align 4
  %.not4 = icmp eq i32 %.pr, 0
  br i1 %.not4, label %._crit_edge, label %.lr.ph.preheader

.lr.ph.preheader:                                 ; preds = %1
  %2 = zext i32 %.pr to i64
  br label %.lr.ph

.lr.ph:                                           ; preds = %.lr.ph.preheader, %6
  %indvars.iv = phi i64 [ %2, %.lr.ph.preheader ], [ %indvars.iv.next, %6 ]
  %indvars.iv.next = add nsw i64 %indvars.iv, -1
  %3 = and i64 %indvars.iv.next, 4294967295
  %4 = getelementptr inbounds [65536 x i8], ptr @scratch_buffer, i64 0, i64 %3
  %5 = load i8, ptr %4, align 1
  switch i8 %5, label %._crit_edge [
    i8 48, label %6
    i8 46, label %6
  ]

6:                                                ; preds = %.lr.ph, %.lr.ph
  %indvars = trunc i64 %indvars.iv.next to i32
  store i32 %indvars, ptr getelementptr inbounds (%struct.ScratchBuf, ptr @scratch_buffer, i64 0, i32 1), align 4
  %.not = icmp eq i32 %indvars, 0
  br i1 %.not, label %._crit_edge, label %.lr.ph, !llvm.loop !22

._crit_edge:                                      ; preds = %6, %.lr.ph, %1
  ret void
}